target datalayout = "e-m:e-p270:32:32-p271:32:32-p272:64:64-i64:64-i128:128-f80:128-n8:16:32:64-S128"
target triple = "x86_64-pc-linux-gnu"

@ett_bacapp_tag = internal global i32 0, align 4
@.str.2609 = private unnamed_addr constant [17 x i8] c"%s(Unsigned) %lu\00", align 1
@.str.2610 = private unnamed_addr constant [26 x i8] c"%s - %u octets (Unsigned)\00", align 1

; Function Attrs: null_pointer_is_valid sspstrong uwtable
define internal zeroext i1 @fUnsigned64(ptr noundef %0, i32 noundef %1, i32 noundef %2, ptr noundef %3) #0 {
  %5 = alloca ptr, align 8
  %6 = alloca i32, align 4
  %7 = alloca i32, align 4
  %8 = alloca ptr, align 8
  %9 = alloca i8, align 1
  %10 = alloca i64, align 8
  %11 = alloca i8, align 1
  %12 = alloca i8, align 1
  store ptr %0, ptr %5, align 8
  store i32 %1, ptr %6, align 4
  store i32 %2, ptr %7, align 4
  store ptr %3, ptr %8, align 8
  call void @llvm.lifetime.start.p0(i64 1, ptr %9) #7
  store i8 0, ptr %9, align 1
  call void @llvm.lifetime.start.p0(i64 8, ptr %10) #7
  store i64 0, ptr %10, align 8
  call void @llvm.lifetime.start.p0(i64 1, ptr %11) #7
  call void @llvm.lifetime.start.p0(i64 1, ptr %12) #7
  %13 = load i32, ptr %7, align 4
  %14 = icmp ne i32 %13, 0
  br i1 %14, label %15, label %42

15:                                               ; preds = %4
  %16 = load i32, ptr %7, align 4
  %17 = icmp ule i32 %16, 8
  br i1 %17, label %18, label %42

18:                                               ; preds = %15
  store i8 1, ptr %9, align 1
  store i8 0, ptr %12, align 1
  br label %19

19:                                               ; preds = %36, %18
  %20 = load i8, ptr %12, align 1
  %21 = zext i8 %20 to i32
  %22 = load i32, ptr %7, align 4
  %23 = icmp ult i32 %21, %22
  br i1 %23, label %24, label %39

24:                                               ; preds = %19
  %25 = load ptr, ptr %5, align 8
  %26 = load i32, ptr %6, align 4
  %27 = load i8, ptr %12, align 1
  %28 = zext i8 %27 to i32
  %29 = add i32 %26, %28
  %30 = call zeroext i8 @tvb_get_uint8(ptr noundef %25, i32 noundef %29)
  store i8 %30, ptr %11, align 1
  %31 = load i64, ptr %10, align 8
  %32 = shl i64 %31, 8
  %33 = load i8, ptr %11, align 1
  %34 = zext i8 %33 to i64
  %35 = add i64 %32, %34
  store i64 %35, ptr %10, align 8
  br label %36

36:                                               ; preds = %24
  %37 = load i8, ptr %12, align 1
  %38 = add i8 %37, 1
  store i8 %38, ptr %12, align 1
  br label %19, !llvm.loop !15

39:                                               ; preds = %19
  %40 = load i64, ptr %10, align 8
  %41 = load ptr, ptr %8, align 8
  store i64 %40, ptr %41, align 8
  br label %42

42:                                               ; preds = %39, %15, %4
  %43 = load i8, ptr %9, align 1, !range !6, !noundef !7
  %44 = trunc i8 %43 to i1
  call void @llvm.lifetime.end.p0(i64 1, ptr %12) #7
  call void @llvm.lifetime.end.p0(i64 1, ptr %11) #7
  call void @llvm.lifetime.end.p0(i64 8, ptr %10) #7
  call void @llvm.lifetime.end.p0(i64 1, ptr %9) #7
  ret i1 %44
}

; Function Attrs: null_pointer_is_valid sspstrong uwtable
define internal i32 @fTagHeader(ptr noundef %0, ptr noundef %1, i32 noundef %2, ptr noundef %3, ptr noundef %4, ptr noundef %5) #0 {
  %7 = alloca ptr, align 8
  %8 = alloca ptr, align 8
  %9 = alloca i32, align 4
  %10 = alloca ptr, align 8
  %11 = alloca ptr, align 8
  %12 = alloca ptr, align 8
  store ptr %0, ptr %7, align 8
  store ptr %1, ptr %8, align 8
  store i32 %2, ptr %9, align 4
  store ptr %3, ptr %10, align 8
  store ptr %4, ptr %11, align 8
  store ptr %5, ptr %12, align 8
  %13 = load ptr, ptr %7, align 8
  %14 = load ptr, ptr %8, align 8
  %15 = load i32, ptr %9, align 4
  %16 = load ptr, ptr %10, align 8
  %17 = load ptr, ptr %11, align 8
  %18 = load ptr, ptr %12, align 8
  %19 = call i32 @fTagHeaderTree(ptr noundef %13, ptr noundef %14, ptr noundef null, i32 noundef %15, ptr noundef %16, ptr noundef %17, ptr noundef %18)
  ret i32 %19
}

; Function Attrs: null_pointer_is_valid sspstrong uwtable
define internal i32 @fUnsignedTag(ptr noundef %0, ptr noundef %1, ptr noundef %2, i32 noundef %3, ptr noundef %4) #0 {
  %6 = alloca ptr, align 8
  %7 = alloca ptr, align 8
  %8 = alloca ptr, align 8
  %9 = alloca i32, align 4
  %10 = alloca ptr, align 8
  %11 = alloca i64, align 8
  %12 = alloca i8, align 1
  %13 = alloca i8, align 1
  %14 = alloca i32, align 4
  %15 = alloca i32, align 4
  %16 = alloca ptr, align 8
  store ptr %0, ptr %6, align 8
  store ptr %1, ptr %7, align 8
  store ptr %2, ptr %8, align 8
  store i32 %3, ptr %9, align 4
  store ptr %4, ptr %10, align 8
  call void @llvm.lifetime.start.p0(i64 8, ptr %11) #7
  store i64 0, ptr %11, align 8
  call void @llvm.lifetime.start.p0(i64 1, ptr %12) #7
  call void @llvm.lifetime.start.p0(i64 1, ptr %13) #7
  call void @llvm.lifetime.start.p0(i64 4, ptr %14) #7
  call void @llvm.lifetime.start.p0(i64 4, ptr %15) #7
  call void @llvm.lifetime.start.p0(i64 8, ptr %16) #7
  %17 = load ptr, ptr %6, align 8
  %18 = load ptr, ptr %7, align 8
  %19 = load i32, ptr %9, align 4
  %20 = call i32 @fTagHeader(ptr noundef %17, ptr noundef %18, i32 noundef %19, ptr noundef %12, ptr noundef %13, ptr noundef %14)
  store i32 %20, ptr %15, align 4
  %21 = load ptr, ptr %6, align 8
  %22 = load i32, ptr %9, align 4
  %23 = load i32, ptr %15, align 4
  %24 = add i32 %22, %23
  %25 = load i32, ptr %14, align 4
  %26 = call zeroext i1 @fUnsigned64(ptr noundef %21, i32 noundef %24, i32 noundef %25, ptr noundef %11)
  br i1 %26, label %27, label %38

27:                                               ; preds = %5
  %28 = load ptr, ptr %8, align 8
  %29 = load ptr, ptr %6, align 8
  %30 = load i32, ptr %9, align 4
  %31 = load i32, ptr %14, align 4
  %32 = load i32, ptr %15, align 4
  %33 = add i32 %31, %32
  %34 = load i32, ptr @ett_bacapp_tag, align 4
  %35 = load ptr, ptr %10, align 8
  %36 = load i64, ptr %11, align 8
  %37 = call ptr (ptr, ptr, i32, i32, i32, ptr, ptr, ...) @proto_tree_add_subtree_format(ptr noundef %28, ptr noundef %29, i32 noundef %30, i32 noundef %33, i32 noundef %34, ptr noundef null, ptr noundef @.str.2609, ptr noundef %35, i64 noundef %36)
  store ptr %37, ptr %16, align 8
  br label %49

38:                                               ; preds = %5
  %39 = load ptr, ptr %8, align 8
  %40 = load ptr, ptr %6, align 8
  %41 = load i32, ptr %9, align 4
  %42 = load i32, ptr %14, align 4
  %43 = load i32, ptr %15, align 4
  %44 = add i32 %42, %43
  %45 = load i32, ptr @ett_bacapp_tag, align 4
  %46 = load ptr, ptr %10, align 8
  %47 = load i32, ptr %14, align 4
  %48 = call ptr (ptr, ptr, i32, i32, i32, ptr, ptr, ...) @proto_tree_add_subtree_format(ptr noundef %39, ptr noundef %40, i32 noundef %41, i32 noundef %44, i32 noundef %45, ptr noundef null, ptr noundef @.str.2610, ptr noundef %46, i32 noundef %47)
  store ptr %48, ptr %16, align 8
  br label %49

49:                                               ; preds = %38, %27
  %50 = load ptr, ptr %6, align 8
  %51 = load ptr, ptr %7, align 8
  %52 = load ptr, ptr %16, align 8
  %53 = load i32, ptr %9, align 4
  %54 = call i32 @fTagHeaderTree(ptr noundef %50, ptr noundef %51, ptr noundef %52, i32 noundef %53, ptr noundef %12, ptr noundef %13, ptr noundef %14)
  %55 = load i32, ptr %9, align 4
  %56 = load i32, ptr %15, align 4
  %57 = add i32 %55, %56
  %58 = load i32, ptr %14, align 4
  %59 = add i32 %57, %58
  call void @llvm.lifetime.end.p0(i64 8, ptr %16) #7
  call void @llvm.lifetime.end.p0(i64 4, ptr %15) #7
  call void @llvm.lifetime.end.p0(i64 4, ptr %14) #7
  call void @llvm.lifetime.end.p0(i64 1, ptr %13) #7
  call void @llvm.lifetime.end.p0(i64 1, ptr %12) #7
  call void @llvm.lifetime.end.p0(i64 8, ptr %11) #7
  ret i32 %59
}