; Function Attrs: null_pointer_is_valid sspstrong uwtable
define internal fastcc i32 @fUnsignedTag(ptr noundef nonnull %0, ptr noundef %1, ptr noundef %2, i32 noundef %3, ptr noundef %4) unnamed_addr #0 {
  %6 = alloca i8, align 1
  %7 = alloca i8, align 1
  %8 = alloca i32, align 4
  call void @llvm.lifetime.start.p0(i64 1, ptr nonnull %6) #6
  call void @llvm.lifetime.start.p0(i64 1, ptr nonnull %7) #6
  call void @llvm.lifetime.start.p0(i64 4, ptr nonnull %8) #6
  %9 = call fastcc range(i32 1, 8) i32 @fTagHeaderTree(ptr noundef nonnull %0, ptr noundef %1, ptr noundef null, i32 noundef %3, ptr noundef nonnull %6, ptr noundef nonnull %7, ptr noundef nonnull %8)
  %10 = add i32 %9, %3
  %11 = load i32, ptr %8, align 4
  %12 = add i32 %11, -1
  %or.cond.i = icmp ult i32 %12, 8
  br i1 %or.cond.i, label %.lr.ph.i, label %fUnsigned64.exit.thread

.lr.ph.i:                                         ; preds = %5, %.lr.ph.i
  %indvars.iv = phi i32 [ %indvars.iv.next, %.lr.ph.i ], [ 0, %5 ]
  %.01417.i = phi i64 [ %17, %.lr.ph.i ], [ 0, %5 ]
  %13 = add i32 %indvars.iv, %10
  %14 = tail call zeroext i8 @tvb_get_uint8(ptr noundef nonnull %0, i32 noundef %13)
  %15 = shl i64 %.01417.i, 8
  %16 = zext i8 %14 to i64
  %17 = or disjoint i64 %15, %16
  %indvars.iv.next = add nuw nsw i32 %indvars.iv, 1
  %exitcond.not = icmp eq i32 %indvars.iv.next, %11
  br i1 %exitcond.not, label %fUnsigned64.exit, label %.lr.ph.i, !llvm.loop !29

fUnsigned64.exit:                                 ; preds = %.lr.ph.i
  %18 = add nuw nsw i32 %11, %9
  %19 = load i32, ptr @ett_bacapp_tag, align 4
  %20 = tail call ptr (ptr, ptr, i32, i32, i32, ptr, ptr, ...) @proto_tree_add_subtree_format(ptr noundef %2, ptr noundef nonnull %0, i32 noundef %3, i32 noundef %18, i32 noundef %19, ptr noundef null, ptr noundef nonnull @.str.2609, ptr noundef %4, i64 noundef %17)
  br label %24

fUnsigned64.exit.thread:                          ; preds = %5
  %21 = add i32 %11, %9
  %22 = load i32, ptr @ett_bacapp_tag, align 4
  %23 = tail call ptr (ptr, ptr, i32, i32, i32, ptr, ptr, ...) @proto_tree_add_subtree_format(ptr noundef %2, ptr noundef nonnull %0, i32 noundef %3, i32 noundef %21, i32 noundef %22, ptr noundef null, ptr noundef nonnull @.str.2610, ptr noundef %4, i32 noundef %11)
  br label %24

24:                                               ; preds = %fUnsigned64.exit.thread, %fUnsigned64.exit
  %.0 = phi ptr [ %20, %fUnsigned64.exit ], [ %23, %fUnsigned64.exit.thread ]
  %25 = call fastcc i32 @fTagHeaderTree(ptr noundef %0, ptr noundef %1, ptr noundef %.0, i32 noundef %3, ptr noundef nonnull %6, ptr noundef nonnull %7, ptr noundef nonnull %8)
  %26 = load i32, ptr %8, align 4
  %27 = add i32 %26, %10
  call void @llvm.lifetime.end.p0(i64 4, ptr nonnull %8) #6
  call void @llvm.lifetime.end.p0(i64 1, ptr nonnull %7) #6
  call void @llvm.lifetime.end.p0(i64 1, ptr nonnull %6) #6
  ret i32 %27
}